; Function Attrs: nounwind uwtable
define ptr @l_Array_foldlMUnsafe_fold___at___private_Lean_Compiler_IR_LiveVars_0__Lean_IR_LiveVars_bindParams___spec__1(ptr noundef readonly captures(none) %0, i64 noundef %1, i64 noundef %2, ptr noundef %3) local_unnamed_addr #0 {
  %.not36 = icmp eq i64 %1, %2
  br i1 %.not36, label %._crit_edge, label %.lr.ph

.lr.ph:                                           ; preds = %4
  %5 = getelementptr inbounds nuw i8, ptr %0, i64 24
  br label %6

6:                                                ; preds = %.lr.ph, %lean_dec.exit
  %.01838 = phi i64 [ %1, %.lr.ph ], [ %34, %lean_dec.exit ]
  %.02037 = phi ptr [ %3, %.lr.ph ], [ %36, %lean_dec.exit ]
  %7 = getelementptr inbounds nuw [0 x ptr], ptr %5, i64 0, i64 %.01838
  %8 = load ptr, ptr %7, align 8, !tbaa !10
  %9 = ptrtoint ptr %8 to i64
  %10 = and i64 %9, 1
  %.not.i25 = icmp eq i64 %10, 0
  br i1 %.not.i25, label %11, label %lean_array_uget.exit

11:                                               ; preds = %6
  %.val.i.i = load i32, ptr %8, align 4, !tbaa !5
  %12 = icmp sgt i32 %.val.i.i, 0
  br i1 %12, label %13, label %15, !prof !14

13:                                               ; preds = %11
  %14 = add nuw i32 %.val.i.i, 1
  store i32 %14, ptr %8, align 4, !tbaa !5
  br label %lean_array_uget.exit

15:                                               ; preds = %11
  %.not.i.i = icmp eq i32 %.val.i.i, 0
  br i1 %.not.i.i, label %lean_array_uget.exit, label %16

16:                                               ; preds = %15
  tail call void @lean_inc_ref_cold(ptr noundef nonnull %8) #4
  br label %lean_array_uget.exit

lean_array_uget.exit:                             ; preds = %6, %13, %15, %16
  %17 = getelementptr inbounds nuw i8, ptr %8, i64 8
  %18 = load ptr, ptr %17, align 8, !tbaa !10
  %19 = ptrtoint ptr %18 to i64
  %20 = and i64 %19, 1
  %.not34 = icmp eq i64 %20, 0
  br i1 %.not34, label %21, label %lean_inc.exit

21:                                               ; preds = %lean_array_uget.exit
  %.val.i = load i32, ptr %18, align 4, !tbaa !5
  %22 = icmp sgt i32 %.val.i, 0
  br i1 %22, label %23, label %25, !prof !14

23:                                               ; preds = %21
  %24 = add nuw i32 %.val.i, 1
  store i32 %24, ptr %18, align 4, !tbaa !5
  br label %lean_inc.exit

25:                                               ; preds = %21
  %.not.i26 = icmp eq i32 %.val.i, 0
  br i1 %.not.i26, label %lean_inc.exit, label %26

26:                                               ; preds = %25
  tail call void @lean_inc_ref_cold(ptr noundef nonnull %18) #4
  br label %lean_inc.exit

lean_inc.exit:                                    ; preds = %26, %25, %23, %lean_array_uget.exit
  br i1 %.not.i25, label %27, label %lean_dec.exit22

27:                                               ; preds = %lean_inc.exit
  %28 = load i32, ptr %8, align 4, !tbaa !5
  %29 = icmp sgt i32 %28, 1
  br i1 %29, label %30, label %32, !prof !14

30:                                               ; preds = %27
  %31 = add nsw i32 %28, -1
  store i32 %31, ptr %8, align 4, !tbaa !5
  br label %lean_dec.exit22

32:                                               ; preds = %27
  %.not.i = icmp eq i32 %28, 0
  br i1 %.not.i, label %lean_dec.exit22, label %33

33:                                               ; preds = %32
  tail call void @lean_dec_ref_cold(ptr noundef nonnull %8) #4
  br label %lean_dec.exit22

lean_dec.exit22:                                  ; preds = %33, %32, %30, %lean_inc.exit
  %34 = add i64 %.01838, 1
  %35 = tail call ptr @l_Lean_RBNode_del___at___private_Lean_Compiler_IR_LiveVars_0__Lean_IR_LiveVars_bindVar___spec__2(ptr noundef %18, ptr noundef %.02037)
  %36 = tail call ptr @l_Lean_RBNode_setBlack___rarg(ptr noundef %35) #4
  br i1 %.not34, label %37, label %lean_dec.exit

37:                                               ; preds = %lean_dec.exit22
  %38 = load i32, ptr %18, align 4, !tbaa !5
  %39 = icmp sgt i32 %38, 1
  br i1 %39, label %40, label %42, !prof !14

40:                                               ; preds = %37
  %41 = add nsw i32 %38, -1
  store i32 %41, ptr %18, align 4, !tbaa !5
  br label %lean_dec.exit

42:                                               ; preds = %37
  %.not.i23 = icmp eq i32 %38, 0
  br i1 %.not.i23, label %lean_dec.exit, label %43

43:                                               ; preds = %42
  tail call void @lean_dec_ref_cold(ptr noundef nonnull %18) #4
  br label %lean_dec.exit

lean_dec.exit:                                    ; preds = %lean_dec.exit22, %40, %42, %43
  %.not = icmp eq i64 %34, %2
  br i1 %.not, label %._crit_edge, label %6

._crit_edge:                                      ; preds = %lean_dec.exit, %4
  %.020.lcssa = phi ptr [ %3, %4 ], [ %36, %lean_dec.exit ]
  ret ptr %.020.lcssa
}